target datalayout = "e-m:e-p270:32:32-p271:32:32-p272:64:64-i64:64-i128:128-f80:128-n8:16:32:64-S128"
target triple = "x86_64-pc-linux-gnu"

%struct.mbedtls_ctr_drbg_context = type { [16 x i8], i32, i32, i64, i32, %struct.mbedtls_aes_context, ptr, ptr }
%struct.mbedtls_aes_context = type { i32, i64, [68 x i32] }

; Function Attrs: nounwind uwtable
define hidden void @mbedtls_ctr_drbg_init(ptr noundef %0) #0 {
  %2 = alloca ptr, align 8
  store ptr %0, ptr %2, align 8, !tbaa !3
  %3 = load ptr, ptr %2, align 8, !tbaa !3
  call void @llvm.memset.p0.i64(ptr align 8 %3, i8 0, i64 344, i1 false)
  %4 = load ptr, ptr %2, align 8, !tbaa !3
  %5 = getelementptr inbounds nuw %struct.mbedtls_ctr_drbg_context, ptr %4, i32 0, i32 5
  call void @mbedtls_aes_init(ptr noundef %5)
  %6 = load ptr, ptr %2, align 8, !tbaa !3
  %7 = getelementptr inbounds nuw %struct.mbedtls_ctr_drbg_context, ptr %6, i32 0, i32 1
  store i32 -1, ptr %7, align 8, !tbaa !8
  %8 = load ptr, ptr %2, align 8, !tbaa !3
  %9 = getelementptr inbounds nuw %struct.mbedtls_ctr_drbg_context, ptr %8, i32 0, i32 4
  store i32 10000, ptr %9, align 8, !tbaa !13
  ret void
}