; Function Attrs: nounwind uwtable
define hidden void @mbedtls_ctr_drbg_init(ptr noundef initializes((0, 344)) %0) local_unnamed_addr #0 {
  tail call void @llvm.memset.p0.i64(ptr noundef nonnull align 8 dereferenceable(344) %0, i8 0, i64 344, i1 false)
  %2 = getelementptr inbounds nuw i8, ptr %0, i64 40
  tail call void @mbedtls_aes_init(ptr noundef nonnull %2) #14
  %3 = getelementptr inbounds nuw i8, ptr %0, i64 16
  store i32 -1, ptr %3, align 8, !tbaa !3
  %4 = getelementptr inbounds nuw i8, ptr %0, i64 32
  store i32 10000, ptr %4, align 8, !tbaa !11
  ret void
}